target datalayout = "e-m:e-p270:32:32-p271:32:32-p272:64:64-i64:64-i128:128-f80:128-n8:16:32:64-S128"
target triple = "x86_64-pc-linux-gnu"

@.str.2 = private unnamed_addr constant [10 x i8] c"varlena.c\00", align 1
@.str.18 = private unnamed_addr constant [37 x i8] c"unterminated format() type specifier\00", align 1
@.str.19 = private unnamed_addr constant [30 x i8] c"For a single \22%%\22 use \22%%%%\22.\00", align 1
@.str.50 = private unnamed_addr constant [23 x i8] c"number is out of range\00", align 1
@__func__.text_format_parse_digits = private unnamed_addr constant [25 x i8] c"text_format_parse_digits\00", align 1

; Function Attrs: inlinehint nounwind uwtable
define internal zeroext i1 @pg_add_s32_overflow(i32 noundef %0, i32 noundef %1, ptr noundef %2) #0 {
  %4 = alloca i32, align 4
  %5 = alloca i32, align 4
  %6 = alloca ptr, align 8
  store i32 %0, ptr %4, align 4
  store i32 %1, ptr %5, align 4
  store ptr %2, ptr %6, align 8
  %7 = load i32, ptr %4, align 4
  %8 = load i32, ptr %5, align 4
  %9 = load ptr, ptr %6, align 8
  %10 = call { i32, i1 } @llvm.sadd.with.overflow.i32(i32 %7, i32 %8)
  %11 = extractvalue { i32, i1 } %10, 1
  %12 = extractvalue { i32, i1 } %10, 0
  store i32 %12, ptr %9, align 4
  ret i1 %11
}

; Function Attrs: inlinehint nounwind uwtable
define internal zeroext i1 @pg_mul_s32_overflow(i32 noundef %0, i32 noundef %1, ptr noundef %2) #0 {
  %4 = alloca i32, align 4
  %5 = alloca i32, align 4
  %6 = alloca ptr, align 8
  store i32 %0, ptr %4, align 4
  store i32 %1, ptr %5, align 4
  store ptr %2, ptr %6, align 8
  %7 = load i32, ptr %4, align 4
  %8 = load i32, ptr %5, align 4
  %9 = load ptr, ptr %6, align 8
  %10 = call { i32, i1 } @llvm.smul.with.overflow.i32(i32 %7, i32 %8)
  %11 = extractvalue { i32, i1 } %10, 1
  %12 = extractvalue { i32, i1 } %10, 0
  store i32 %12, ptr %9, align 4
  ret i1 %11
}

; Function Attrs: nounwind uwtable
define internal zeroext i1 @text_format_parse_digits(ptr noundef %0, ptr noundef %1, ptr noundef %2) #1 {
  %4 = alloca ptr, align 8
  %5 = alloca ptr, align 8
  %6 = alloca ptr, align 8
  %7 = alloca i8, align 1
  %8 = alloca ptr, align 8
  %9 = alloca i32, align 4
  %10 = alloca i8, align 1
  store ptr %0, ptr %4, align 8
  store ptr %1, ptr %5, align 8
  store ptr %2, ptr %6, align 8
  call void @llvm.lifetime.start.p0(i64 1, ptr %7) #13
  store i8 0, ptr %7, align 1
  call void @llvm.lifetime.start.p0(i64 8, ptr %8) #13
  %11 = load ptr, ptr %4, align 8
  %12 = load ptr, ptr %11, align 8
  store ptr %12, ptr %8, align 8
  call void @llvm.lifetime.start.p0(i64 4, ptr %9) #13
  store i32 0, ptr %9, align 4
  br label %13

13:                                               ; preds = %83, %3
  %14 = load ptr, ptr %8, align 8
  %15 = load i8, ptr %14, align 1
  %16 = sext i8 %15 to i32
  %17 = icmp sge i32 %16, 48
  br i1 %17, label %18, label %23

18:                                               ; preds = %13
  %19 = load ptr, ptr %8, align 8
  %20 = load i8, ptr %19, align 1
  %21 = sext i8 %20 to i32
  %22 = icmp sle i32 %21, 57
  br label %23

23:                                               ; preds = %18, %13
  %24 = phi i1 [ false, %13 ], [ %22, %18 ]
  br i1 %24, label %25, label %84

25:                                               ; preds = %23
  call void @llvm.lifetime.start.p0(i64 1, ptr %10) #13
  %26 = load ptr, ptr %8, align 8
  %27 = load i8, ptr %26, align 1
  %28 = sext i8 %27 to i32
  %29 = sub i32 %28, 48
  %30 = trunc i32 %29 to i8
  store i8 %30, ptr %10, align 1
  %31 = load i32, ptr %9, align 4
  %32 = call zeroext i1 @pg_mul_s32_overflow(i32 noundef %31, i32 noundef 10, ptr noundef %9)
  %33 = zext i1 %32 to i32
  %34 = icmp ne i32 %33, 0
  %35 = zext i1 %34 to i32
  %36 = sext i32 %35 to i64
  %37 = call i64 @llvm.expect.i64(i64 %36, i64 0)
  %38 = icmp ne i64 %37, 0
  br i1 %38, label %50, label %39

39:                                               ; preds = %25
  %40 = load i32, ptr %9, align 4
  %41 = load i8, ptr %10, align 1
  %42 = sext i8 %41 to i32
  %43 = call zeroext i1 @pg_add_s32_overflow(i32 noundef %40, i32 noundef %42, ptr noundef %9)
  %44 = zext i1 %43 to i32
  %45 = icmp ne i32 %44, 0
  %46 = zext i1 %45 to i32
  %47 = sext i32 %46 to i64
  %48 = call i64 @llvm.expect.i64(i64 %47, i64 0)
  %49 = icmp ne i64 %48, 0
  br i1 %49, label %50, label %62

50:                                               ; preds = %39, %25
  br label %51

51:                                               ; preds = %50
  br i1 true, label %52, label %54

52:                                               ; preds = %51
  %53 = call zeroext i1 @errstart_cold(i32 noundef 21, ptr noundef null) #14
  br i1 %53, label %56, label %59

54:                                               ; preds = %51
  %55 = call zeroext i1 @errstart(i32 noundef 21, ptr noundef null)
  br i1 %55, label %56, label %59

56:                                               ; preds = %54, %52
  %57 = call i32 @errcode(i32 noundef 50331778)
  %58 = call i32 (ptr, ...) @errmsg(ptr noundef @.str.50)
  call void @errfinish(ptr noundef @.str.2, i32 noundef 5942, ptr noundef @__func__.text_format_parse_digits)
  br label %59

59:                                               ; preds = %56, %54, %52
  unreachable

60:                                               ; No predecessors!
  br label %61

61:                                               ; preds = %60
  br label %62

62:                                               ; preds = %61, %39
  br label %63

63:                                               ; preds = %62
  %64 = load ptr, ptr %8, align 8
  %65 = getelementptr inbounds nuw i8, ptr %64, i32 1
  store ptr %65, ptr %8, align 8
  %66 = load ptr, ptr %5, align 8
  %67 = icmp uge ptr %65, %66
  br i1 %67, label %68, label %81

68:                                               ; preds = %63
  br label %69

69:                                               ; preds = %68
  br i1 true, label %70, label %72

70:                                               ; preds = %69
  %71 = call zeroext i1 @errstart_cold(i32 noundef 21, ptr noundef null) #14
  br i1 %71, label %74, label %78

72:                                               ; preds = %69
  %73 = call zeroext i1 @errstart(i32 noundef 21, ptr noundef null)
  br i1 %73, label %74, label %78

74:                                               ; preds = %72, %70
  %75 = call i32 @errcode(i32 noundef 50856066)
  %76 = call i32 (ptr, ...) @errmsg(ptr noundef @.str.18)
  %77 = call i32 (ptr, ...) @errhint(ptr noundef @.str.19)
  call void @errfinish(ptr noundef @.str.2, i32 noundef 5943, ptr noundef @__func__.text_format_parse_digits)
  br label %78

78:                                               ; preds = %74, %72, %70
  unreachable

79:                                               ; No predecessors!
  br label %80

80:                                               ; preds = %79
  br label %81

81:                                               ; preds = %80, %63
  br label %82

82:                                               ; preds = %81
  br label %83

83:                                               ; preds = %82
  store i8 1, ptr %7, align 1
  call void @llvm.lifetime.end.p0(i64 1, ptr %10) #13
  br label %13, !llvm.loop !75

84:                                               ; preds = %23
  %85 = load ptr, ptr %8, align 8
  %86 = load ptr, ptr %4, align 8
  store ptr %85, ptr %86, align 8
  %87 = load i32, ptr %9, align 4
  %88 = load ptr, ptr %6, align 8
  store i32 %87, ptr %88, align 4
  %89 = load i8, ptr %7, align 1, !range !9, !noundef !10
  %90 = trunc i8 %89 to i1
  call void @llvm.lifetime.end.p0(i64 4, ptr %9) #13
  call void @llvm.lifetime.end.p0(i64 8, ptr %8) #13
  call void @llvm.lifetime.end.p0(i64 1, ptr %7) #13
  ret i1 %90
}