; Function Attrs: nounwind uwtable
define internal fastcc noundef zeroext i1 @text_format_parse_digits(ptr noundef nonnull captures(none) %0, ptr noundef readnone captures(address) %1, ptr noundef nonnull writeonly captures(none) %2) unnamed_addr #0 {
  %4 = load ptr, ptr %0, align 8
  %5 = load i8, ptr %4, align 1
  %6 = add i8 %5, -48
  %or.cond22 = icmp ult i8 %6, 10
  br i1 %or.cond22, label %.lr.ph, label %.critedge

7:                                                ; preds = %23
  %8 = extractvalue { i32, i1 } %17, 0
  %9 = load i8, ptr %24, align 1
  %10 = add i8 %9, -48
  %or.cond = icmp ult i8 %10, 10
  br i1 %or.cond, label %.lr.ph, label %.critedge, !llvm.loop !75

.lr.ph:                                           ; preds = %3, %7
  %11 = phi i8 [ %9, %7 ], [ %5, %3 ]
  %.01024 = phi ptr [ %24, %7 ], [ %4, %3 ]
  %.01523 = phi i32 [ %8, %7 ], [ 0, %3 ]
  %12 = tail call { i32, i1 } @llvm.smul.with.overflow.i32(i32 %.01523, i32 10)
  %13 = extractvalue { i32, i1 } %12, 1
  br i1 %13, label %19, label %14, !prof !76

14:                                               ; preds = %.lr.ph
  %15 = extractvalue { i32, i1 } %12, 0
  %narrow = add nsw i8 %11, -48
  %16 = zext nneg i8 %narrow to i32
  %17 = tail call { i32, i1 } @llvm.sadd.with.overflow.i32(i32 %15, i32 %16)
  %18 = extractvalue { i32, i1 } %17, 1
  br i1 %18, label %19, label %23, !prof !76

19:                                               ; preds = %14, %.lr.ph
  %20 = tail call zeroext i1 @errstart_cold(i32 noundef 21, ptr noundef null) #20
  tail call void @llvm.assume(i1 %20)
  %21 = tail call i32 @errcode(i32 noundef 50331778) #19
  %22 = tail call i32 (ptr, ...) @errmsg(ptr noundef nonnull @.str.50) #19
  tail call void @errfinish(ptr noundef nonnull @.str.2, i32 noundef 5942, ptr noundef nonnull @__func__.text_format_parse_digits) #19
  unreachable

23:                                               ; preds = %14
  %24 = getelementptr inbounds nuw i8, ptr %.01024, i64 1
  %.not = icmp ult ptr %24, %1
  br i1 %.not, label %7, label %25, !llvm.loop !75

25:                                               ; preds = %23
  %26 = tail call zeroext i1 @errstart_cold(i32 noundef 21, ptr noundef null) #20
  tail call void @llvm.assume(i1 %26)
  %27 = tail call i32 @errcode(i32 noundef 50856066) #19
  %28 = tail call i32 (ptr, ...) @errmsg(ptr noundef nonnull @.str.18) #19
  %29 = tail call i32 (ptr, ...) @errhint(ptr noundef nonnull @.str.19) #19
  tail call void @errfinish(ptr noundef nonnull @.str.2, i32 noundef 5943, ptr noundef nonnull @__func__.text_format_parse_digits) #19
  unreachable

.critedge:                                        ; preds = %7, %3
  %.015.lcssa = phi i32 [ 0, %3 ], [ %8, %7 ]
  %.010.lcssa = phi ptr [ %4, %3 ], [ %24, %7 ]
  store ptr %.010.lcssa, ptr %0, align 8
  store i32 %.015.lcssa, ptr %2, align 4
  ret i1 %or.cond22
}